; Function Attrs: alwaysinline norecurse nounwind uwtable
define internal void @_ZNK8LightGBM16RegressionMetricINS_11GammaMetricEE4EvalEPKdPKNS_17ObjectiveFunctionE.omp_outlined.110(ptr noalias noundef readonly captures(none) %0, ptr noalias readnone captures(none) %1, ptr noundef readonly captures(none) %2, ptr noundef nonnull readonly align 8 captures(none) dereferenceable(8) %3, ptr noundef nonnull readonly align 8 captures(none) dereferenceable(8) %4, ptr noundef nonnull align 8 captures(none) dereferenceable(8) %5) #15 personality ptr @__gxx_personality_v0 {
  %7 = alloca i32, align 4
  %8 = alloca i32, align 4
  %9 = alloca i32, align 4
  %10 = alloca i32, align 4
  %11 = alloca double, align 8
  %12 = alloca double, align 8
  %13 = alloca [1 x ptr], align 8
  %14 = getelementptr inbounds nuw i8, ptr %2, i64 8
  %15 = load i32, ptr %14, align 8, !tbaa !566
  %16 = icmp sgt i32 %15, 0
  br i1 %16, label %17, label %68

17:                                               ; preds = %6
  %18 = add nsw i32 %15, -1
  call void @llvm.lifetime.start.p0(i64 4, ptr nonnull %7) #16
  store i32 0, ptr %7, align 4, !tbaa !127
  call void @llvm.lifetime.start.p0(i64 4, ptr nonnull %8) #16
  store i32 %18, ptr %8, align 4, !tbaa !127
  call void @llvm.lifetime.start.p0(i64 4, ptr nonnull %9) #16
  store i32 1, ptr %9, align 4, !tbaa !127
  call void @llvm.lifetime.start.p0(i64 4, ptr nonnull %10) #16
  store i32 0, ptr %10, align 4, !tbaa !127
  call void @llvm.lifetime.start.p0(i64 8, ptr nonnull %11) #16
  store double 0.000000e+00, ptr %11, align 8, !tbaa !84
  %19 = load i32, ptr %0, align 4, !tbaa !127
  call void @__kmpc_for_static_init_4(ptr nonnull @1, i32 %19, i32 34, ptr nonnull %10, ptr nonnull %7, ptr nonnull %8, ptr nonnull %9, i32 1, i32 1)
  %20 = load i32, ptr %8, align 4, !tbaa !127
  %21 = call i32 @llvm.smin.i32(i32 %20, i32 %18)
  store i32 %21, ptr %8, align 4, !tbaa !127
  %22 = load i32, ptr %7, align 4, !tbaa !127
  %.not17 = icmp sgt i32 %22, %21
  br i1 %.not17, label %._crit_edge, label %.lr.ph

.lr.ph:                                           ; preds = %17
  %23 = getelementptr inbounds nuw i8, ptr %2, i64 16
  %24 = getelementptr inbounds nuw i8, ptr %2, i64 24
  %25 = sext i32 %22 to i64
  br label %26

26:                                               ; preds = %.lr.ph, %34
  %27 = phi double [ 0.000000e+00, %.lr.ph ], [ %56, %34 ]
  %indvars.iv = phi i64 [ %25, %.lr.ph ], [ %indvars.iv.next, %34 ]
  call void @llvm.lifetime.start.p0(i64 8, ptr nonnull %12) #16
  store double 0.000000e+00, ptr %12, align 8, !tbaa !84
  %28 = load ptr, ptr %3, align 8, !tbaa !82
  %29 = load ptr, ptr %4, align 8, !tbaa !81
  %30 = getelementptr inbounds double, ptr %29, i64 %indvars.iv
  %31 = load ptr, ptr %28, align 8, !tbaa !15
  %32 = getelementptr inbounds nuw i8, ptr %31, i64 136
  %33 = load ptr, ptr %32, align 8
  invoke void %33(ptr noundef nonnull align 8 dereferenceable(8) %28, ptr noundef %30, ptr noundef nonnull %12)
          to label %34 unwind label %69

34:                                               ; preds = %26
  %35 = load ptr, ptr %23, align 8, !tbaa !568
  %36 = getelementptr inbounds float, ptr %35, i64 %indvars.iv
  %37 = load float, ptr %36, align 4, !tbaa !78
  %38 = load double, ptr %12, align 8, !tbaa !84
  %39 = fdiv double -1.000000e+00, %38
  %40 = fneg double %39
  %41 = fcmp olt double %39, 0.000000e+00
  %42 = call double @llvm.log.f64(double %40)
  %.0.i.i = select i1 %41, double %42, double 0xFFF0000000000000
  %43 = fpext float %37 to double
  %44 = fcmp ogt float %37, 0.000000e+00
  %45 = call double @llvm.log.f64(double %43)
  %.0.i8.i = select i1 %44, double %45, double 0xFFF0000000000000
  %46 = call float @llvm.log.f32(float %37)
  %.0.i9.i = select i1 %44, float %46, float 0xFFF0000000000000
  %47 = fpext float %.0.i9.i to double
  %48 = fsub double %.0.i8.i, %47
  %49 = call double @llvm.fmuladd.f64(double %43, double %39, double %.0.i.i)
  %50 = fadd double %48, %49
  %51 = fneg double %50
  %52 = load ptr, ptr %24, align 8, !tbaa !569
  %53 = getelementptr inbounds float, ptr %52, i64 %indvars.iv
  %54 = load float, ptr %53, align 4, !tbaa !78
  %55 = fpext float %54 to double
  %56 = call double @llvm.fmuladd.f64(double %51, double %55, double %27)
  store double %56, ptr %11, align 8, !tbaa !84
  call void @llvm.lifetime.end.p0(i64 8, ptr nonnull %12) #16
  %indvars.iv.next = add nsw i64 %indvars.iv, 1
  %57 = load i32, ptr %8, align 4, !tbaa !127
  %58 = sext i32 %57 to i64
  %.not.not = icmp slt i64 %indvars.iv, %58
  br i1 %.not.not, label %26, label %._crit_edge

._crit_edge:                                      ; preds = %34, %17
  call void @__kmpc_for_static_fini(ptr nonnull @1, i32 %19)
  store ptr %11, ptr %13, align 8
  %59 = call i32 @__kmpc_reduce_nowait(ptr nonnull @2, i32 %19, i32 1, i64 8, ptr nonnull %13, ptr nonnull @_ZNK8LightGBM16RegressionMetricINS_11GammaMetricEE4EvalEPKdPKNS_17ObjectiveFunctionE.omp_outlined.110.omp.reduction.reduction_func, ptr nonnull @.gomp_critical_user_.reduction.var)
  switch i32 %59, label %67 [
    i32 1, label %60
    i32 2, label %64
  ]

60:                                               ; preds = %._crit_edge
  %61 = load double, ptr %5, align 8, !tbaa !84
  %62 = load double, ptr %11, align 8, !tbaa !84
  %63 = fadd double %61, %62
  store double %63, ptr %5, align 8, !tbaa !84
  call void @__kmpc_end_reduce_nowait(ptr nonnull @2, i32 %19, ptr nonnull @.gomp_critical_user_.reduction.var)
  br label %67

64:                                               ; preds = %._crit_edge
  %65 = load double, ptr %11, align 8, !tbaa !84
  %66 = atomicrmw fadd ptr %5, double %65 monotonic, align 8
  br label %67

67:                                               ; preds = %64, %60, %._crit_edge
  call void @llvm.lifetime.end.p0(i64 8, ptr nonnull %11) #16
  call void @llvm.lifetime.end.p0(i64 4, ptr nonnull %10) #16
  call void @llvm.lifetime.end.p0(i64 4, ptr nonnull %9) #16
  call void @llvm.lifetime.end.p0(i64 4, ptr nonnull %8) #16
  call void @llvm.lifetime.end.p0(i64 4, ptr nonnull %7) #16
  br label %68

68:                                               ; preds = %67, %6
  ret void

69:                                               ; preds = %26
  %70 = landingpad { ptr, i32 }
          catch ptr null
  %71 = extractvalue { ptr, i32 } %70, 0
  call void @__clang_call_terminate(ptr %71) #35
  unreachable
}